; Function Attrs: mustprogress nofree norecurse nosync nounwind willreturn memory(argmem: readwrite) uwtable
define internal noundef zeroext i1 @"_ZNSt17_Function_handlerIFvPKvRKSt8functionIFvPKN3dap8TypeInfoES1_EERKS2_IFvS6_RKNS3_5ErrorEEEEZNS3_7Session15registerHandlerIZN10cmDebugger17cmDebuggerAdapterC1ESt10shared_ptrINSL_20cmDebuggerConnectionEESt8optionalISN_INS3_6WriterEEEE3$_7NS3_12PauseRequestEEENSt9enable_ifIXsr6traits14CompatibleWithIT_S2_IFvNS3_7RequestEEEEE5valueEvE4typeEOSX_EUlS1_SA_SH_E_E10_M_managerERSt9_Any_dataRKS16_St18_Manager_operation"(ptr nocapture noundef nonnull writeonly align 8 dereferenceable(16) %0, ptr noundef nonnull align 8 dereferenceable(16) %1, i32 noundef %2) #12 align 2 personality ptr @__gxx_personality_v0 {
  switch i32 %2, label %"_ZNSt14_Function_base13_Base_managerIZN3dap7Session15registerHandlerIZN10cmDebugger17cmDebuggerAdapterC1ESt10shared_ptrINS4_20cmDebuggerConnectionEESt8optionalIS6_INS1_6WriterEEEE3$_7NS1_12PauseRequestEEENSt9enable_ifIXsr6traits14CompatibleWithIT_St8functionIFvNS1_7RequestEEEEE5valueEvE4typeEOSG_EUlPKvRKSH_IFvPKNS1_8TypeInfoESP_EERKSH_IFvSS_RKNS1_5ErrorEEEE_E10_M_managerERSt9_Any_dataRKS16_St18_Manager_operation.exit" [
    i32 0, label %4
    i32 1, label %5
    i32 2, label %6
  ]

4:                                                ; preds = %3
  store ptr @"_ZTIZN3dap7Session15registerHandlerIZN10cmDebugger17cmDebuggerAdapterC1ESt10shared_ptrINS2_20cmDebuggerConnectionEESt8optionalIS4_INS_6WriterEEEE3$_7NS_12PauseRequestEEENSt9enable_ifIXsr6traits14CompatibleWithIT_St8functionIFvNS_7RequestEEEEE5valueEvE4typeEOSE_EUlPKvRKSF_IFvPKNS_8TypeInfoESN_EERKSF_IFvSQ_RKNS_5ErrorEEEE_", ptr %0, align 8
  br label %"_ZNSt14_Function_base13_Base_managerIZN3dap7Session15registerHandlerIZN10cmDebugger17cmDebuggerAdapterC1ESt10shared_ptrINS4_20cmDebuggerConnectionEESt8optionalIS6_INS1_6WriterEEEE3$_7NS1_12PauseRequestEEENSt9enable_ifIXsr6traits14CompatibleWithIT_St8functionIFvNS1_7RequestEEEEE5valueEvE4typeEOSG_EUlPKvRKSH_IFvPKNS1_8TypeInfoESP_EERKSH_IFvSS_RKNS1_5ErrorEEEE_E10_M_managerERSt9_Any_dataRKS16_St18_Manager_operation.exit"

5:                                                ; preds = %3
  store ptr %1, ptr %0, align 8
  br label %"_ZNSt14_Function_base13_Base_managerIZN3dap7Session15registerHandlerIZN10cmDebugger17cmDebuggerAdapterC1ESt10shared_ptrINS4_20cmDebuggerConnectionEESt8optionalIS6_INS1_6WriterEEEE3$_7NS1_12PauseRequestEEENSt9enable_ifIXsr6traits14CompatibleWithIT_St8functionIFvNS1_7RequestEEEEE5valueEvE4typeEOSG_EUlPKvRKSH_IFvPKNS1_8TypeInfoESP_EERKSH_IFvSS_RKNS1_5ErrorEEEE_E10_M_managerERSt9_Any_dataRKS16_St18_Manager_operation.exit"

6:                                                ; preds = %3
  %.val.i = load i64, ptr %1, align 8
  store i64 %.val.i, ptr %0, align 8
  br label %"_ZNSt14_Function_base13_Base_managerIZN3dap7Session15registerHandlerIZN10cmDebugger17cmDebuggerAdapterC1ESt10shared_ptrINS4_20cmDebuggerConnectionEESt8optionalIS6_INS1_6WriterEEEE3$_7NS1_12PauseRequestEEENSt9enable_ifIXsr6traits14CompatibleWithIT_St8functionIFvNS1_7RequestEEEEE5valueEvE4typeEOSG_EUlPKvRKSH_IFvPKNS1_8TypeInfoESP_EERKSH_IFvSS_RKNS1_5ErrorEEEE_E10_M_managerERSt9_Any_dataRKS16_St18_Manager_operation.exit"

"_ZNSt14_Function_base13_Base_managerIZN3dap7Session15registerHandlerIZN10cmDebugger17cmDebuggerAdapterC1ESt10shared_ptrINS4_20cmDebuggerConnectionEESt8optionalIS6_INS1_6WriterEEEE3$_7NS1_12PauseRequestEEENSt9enable_ifIXsr6traits14CompatibleWithIT_St8functionIFvNS1_7RequestEEEEE5valueEvE4typeEOSG_EUlPKvRKSH_IFvPKNS1_8TypeInfoESP_EERKSH_IFvSS_RKNS1_5ErrorEEEE_E10_M_managerERSt9_Any_dataRKS16_St18_Manager_operation.exit": ; preds = %3, %6, %5, %4
  ret i1 false
}